; Function Attrs: mustprogress uwtable
define hidden void @_ZN4lean12type_checker11ensure_sortERKNS_4exprES3_(ptr dead_on_unwind noalias writable sret(%"class.lean::expr") align 8 %0, ptr noundef nonnull align 8 dereferenceable(48) %1, ptr noundef nonnull readonly align 8 captures(none) dereferenceable(8) %2, ptr noundef nonnull align 8 dereferenceable(8) %3) local_unnamed_addr #0 align 2 personality ptr @__gxx_personality_v0 {
  %5 = alloca %"class.lean::expr", align 8
  %6 = load ptr, ptr %2, align 8, !tbaa !3
  store ptr %6, ptr %5, align 8, !tbaa !3
  %7 = ptrtoint ptr %6 to i64
  %8 = and i64 %7, 1
  %.not.i.i.i = icmp eq i64 %8, 0
  br i1 %.not.i.i.i, label %9, label %_ZN4lean4exprC2ERKS0_.exit

9:                                                ; preds = %4
  %.val.i.i.i.i = load i32, ptr %6, align 4, !tbaa !8
  %10 = icmp sgt i32 %.val.i.i.i.i, 0
  br i1 %10, label %11, label %13, !prof !11

11:                                               ; preds = %9
  %12 = add nuw nsw i32 %.val.i.i.i.i, 1
  store i32 %12, ptr %6, align 4, !tbaa !8
  br label %_ZN4lean4exprC2ERKS0_.exit

13:                                               ; preds = %9
  %.not.i.i.i.i = icmp eq i32 %.val.i.i.i.i, 0
  br i1 %.not.i.i.i.i, label %_ZN4lean4exprC2ERKS0_.exit, label %14

14:                                               ; preds = %13
  tail call void @lean_inc_ref_cold(ptr noundef nonnull %6)
  br label %_ZN4lean4exprC2ERKS0_.exit

_ZN4lean4exprC2ERKS0_.exit:                       ; preds = %4, %11, %13, %14
  invoke void @_ZN4lean12type_checker16ensure_sort_coreENS_4exprERKS1_(ptr dead_on_unwind writable sret(%"class.lean::expr") align 8 %0, ptr noundef nonnull align 8 dereferenceable(48) %1, ptr noundef nonnull %5, ptr noundef nonnull align 8 dereferenceable(8) %3)
          to label %15 unwind label %29

15:                                               ; preds = %_ZN4lean4exprC2ERKS0_.exit
  %16 = load ptr, ptr %5, align 8, !tbaa !3
  %17 = ptrtoint ptr %16 to i64
  %18 = and i64 %17, 1
  %.not.i.i = icmp eq i64 %18, 0
  br i1 %.not.i.i, label %19, label %_ZN4lean10object_refD2Ev.exit

19:                                               ; preds = %15
  %20 = load i32, ptr %16, align 4, !tbaa !8
  %21 = icmp sgt i32 %20, 1
  br i1 %21, label %22, label %24, !prof !11

22:                                               ; preds = %19
  %23 = add nsw i32 %20, -1
  store i32 %23, ptr %16, align 4, !tbaa !8
  br label %_ZN4lean10object_refD2Ev.exit

24:                                               ; preds = %19
  %.not.i.i.i.i4 = icmp eq i32 %20, 0
  br i1 %.not.i.i.i.i4, label %_ZN4lean10object_refD2Ev.exit, label %25

25:                                               ; preds = %24
  invoke void @lean_dec_ref_cold(ptr noundef nonnull %16)
          to label %_ZN4lean10object_refD2Ev.exit unwind label %26

26:                                               ; preds = %25
  %27 = landingpad { ptr, i32 }
          catch ptr null
  %28 = extractvalue { ptr, i32 } %27, 0
  call void @__clang_call_terminate(ptr %28) #21
  unreachable

_ZN4lean10object_refD2Ev.exit:                    ; preds = %15, %22, %24, %25
  ret void

29:                                               ; preds = %_ZN4lean4exprC2ERKS0_.exit
  %30 = landingpad { ptr, i32 }
          cleanup
  call void @_ZN4lean10object_refD2Ev(ptr noundef nonnull align 8 dereferenceable(8) %5) #19
  resume { ptr, i32 } %30
}